; Function Attrs: mustprogress nofree norecurse nosync nounwind willreturn memory(read, inaccessiblemem: none) uwtable
define dso_local noundef zeroext i1 @_ZNK5clang11DeclContext12containsDeclEPNS_4DeclE(ptr noundef nonnull readonly align 8 dereferenceable(32) %0, ptr noundef readonly %1) local_unnamed_addr #1 align 2 {
  %3 = getelementptr inbounds nuw i8, ptr %1, i64 16
  %.0.copyload.i.i.i.i.i.i.i.i.i.i = load i64, ptr %3, align 8
  %4 = and i64 %.0.copyload.i.i.i.i.i.i.i.i.i.i, 4
  %5 = icmp eq i64 %4, 0
  %6 = and i64 %.0.copyload.i.i.i.i.i.i.i.i.i.i, -8
  %7 = inttoptr i64 %6 to ptr
  br i1 %5, label %_ZN5clang4Decl21getLexicalDeclContextEv.exit, label %8

8:                                                ; preds = %2
  %9 = getelementptr inbounds nuw i8, ptr %7, i64 8
  %10 = load ptr, ptr %9, align 8
  br label %_ZN5clang4Decl21getLexicalDeclContextEv.exit

_ZN5clang4Decl21getLexicalDeclContextEv.exit:     ; preds = %2, %8
  %.0.i = phi ptr [ %10, %8 ], [ %7, %2 ]
  %11 = icmp eq ptr %.0.i, %0
  br i1 %11, label %12, label %18

12:                                               ; preds = %_ZN5clang4Decl21getLexicalDeclContextEv.exit
  %13 = getelementptr inbounds nuw i8, ptr %1, i64 8
  %.0.copyload.i.i.i = load i64, ptr %13, align 8
  %.not = icmp ult i64 %.0.copyload.i.i.i, 8
  br i1 %.not, label %14, label %18

14:                                               ; preds = %12
  %15 = getelementptr inbounds nuw i8, ptr %0, i64 24
  %16 = load ptr, ptr %15, align 8
  %17 = icmp eq ptr %1, %16
  br label %18

18:                                               ; preds = %12, %14, %_ZN5clang4Decl21getLexicalDeclContextEv.exit
  %19 = phi i1 [ false, %_ZN5clang4Decl21getLexicalDeclContextEv.exit ], [ true, %12 ], [ %17, %14 ]
  ret i1 %19
}